target datalayout = "e-m:e-p270:32:32-p271:32:32-p272:64:64-i64:64-i128:128-f80:128-n8:16:32:64-S128"
target triple = "x86_64-pc-linux-gnu"

%"class.duckdb_snappy::SnappyDecompressor" = type <{ ptr, ptr, ptr, ptr, i32, i8, [5 x i8], [6 x i8] }>

; Function Attrs: inlinehint mustprogress nounwind uwtable
define linkonce_odr noundef nonnull align 4 dereferenceable(4) ptr @_ZSt3minIjERKT_S2_S2_(ptr noundef nonnull align 4 dereferenceable(4) %0, ptr noundef nonnull align 4 dereferenceable(4) %1) #3 comdat {
  %3 = alloca ptr, align 8
  %4 = alloca ptr, align 8
  %5 = alloca ptr, align 8
  store ptr %0, ptr %4, align 8, !tbaa !14
  store ptr %1, ptr %5, align 8, !tbaa !14
  %6 = load ptr, ptr %5, align 8, !tbaa !14
  %7 = load i32, ptr %6, align 4, !tbaa !12
  %8 = load ptr, ptr %4, align 8, !tbaa !14
  %9 = load i32, ptr %8, align 4, !tbaa !12
  %10 = icmp ult i32 %7, %9
  br i1 %10, label %11, label %13

11:                                               ; preds = %2
  %12 = load ptr, ptr %5, align 8, !tbaa !14
  store ptr %12, ptr %3, align 8
  br label %15

13:                                               ; preds = %2
  %14 = load ptr, ptr %4, align 8, !tbaa !14
  store ptr %14, ptr %3, align 8
  br label %15

15:                                               ; preds = %13, %11
  %16 = load ptr, ptr %3, align 8
  ret ptr %16
}

; Function Attrs: mustprogress nounwind uwtable
define linkonce_odr noundef i32 @_ZN13duckdb_snappy15CalculateNeededEh(i8 noundef zeroext %0) #0 comdat {
  %2 = alloca i8, align 1
  store i8 %0, ptr %2, align 1, !tbaa !16
  %3 = load i8, ptr %2, align 1, !tbaa !16
  %4 = zext i8 %3 to i32
  %5 = and i32 %4, 3
  %6 = icmp eq i32 %5, 0
  br i1 %6, label %7, label %16

7:                                                ; preds = %1
  %8 = load i8, ptr %2, align 1, !tbaa !16
  %9 = zext i8 %8 to i32
  %10 = icmp sge i32 %9, 240
  br i1 %10, label %11, label %16

11:                                               ; preds = %7
  %12 = load i8, ptr %2, align 1, !tbaa !16
  %13 = zext i8 %12 to i32
  %14 = ashr i32 %13, 2
  %15 = sub nsw i32 %14, 58
  br label %23

16:                                               ; preds = %7, %1
  %17 = load i8, ptr %2, align 1, !tbaa !16
  %18 = zext i8 %17 to i32
  %19 = mul nsw i32 %18, 8
  %20 = and i32 %19, 31
  %21 = ashr i32 84083201, %20
  %22 = and i32 %21, 255
  br label %23

23:                                               ; preds = %16, %11
  %24 = phi i32 [ %15, %11 ], [ %22, %16 ]
  ret i32 %24
}

; Function Attrs: mustprogress uwtable
define noundef zeroext i1 @_ZN13duckdb_snappy18SnappyDecompressor9RefillTagEv(ptr noundef nonnull align 8 dereferenceable(42) %0) #1 align 2 {
  %2 = alloca i1, align 1
  %3 = alloca ptr, align 8
  %4 = alloca ptr, align 8
  %5 = alloca i64, align 8
  %6 = alloca i32, align 4
  %7 = alloca i8, align 1
  %8 = alloca i32, align 4
  %9 = alloca i32, align 4
  %10 = alloca i64, align 8
  %11 = alloca ptr, align 8
  %12 = alloca i32, align 4
  %13 = alloca i32, align 4
  %14 = alloca i32, align 4
  store ptr %0, ptr %3, align 8, !tbaa !59
  %15 = load ptr, ptr %3, align 8
  call void @llvm.lifetime.start.p0(i64 8, ptr %4) #17
  %16 = getelementptr inbounds nuw %"class.duckdb_snappy::SnappyDecompressor", ptr %15, i32 0, i32 1
  %17 = load ptr, ptr %16, align 8, !tbaa !61
  store ptr %17, ptr %4, align 8, !tbaa !7
  %18 = load ptr, ptr %4, align 8, !tbaa !7
  %19 = getelementptr inbounds nuw %"class.duckdb_snappy::SnappyDecompressor", ptr %15, i32 0, i32 2
  %20 = load ptr, ptr %19, align 8, !tbaa !64
  %21 = icmp eq ptr %18, %20
  br i1 %21, label %22, label %56

22:                                               ; preds = %1
  %23 = getelementptr inbounds nuw %"class.duckdb_snappy::SnappyDecompressor", ptr %15, i32 0, i32 0
  %24 = load ptr, ptr %23, align 8, !tbaa !65
  %25 = getelementptr inbounds nuw %"class.duckdb_snappy::SnappyDecompressor", ptr %15, i32 0, i32 4
  %26 = load i32, ptr %25, align 8, !tbaa !66
  %27 = zext i32 %26 to i64
  %28 = load ptr, ptr %24, align 8, !tbaa !67
  %29 = getelementptr inbounds ptr, ptr %28, i64 4
  %30 = load ptr, ptr %29, align 8
  call void %30(ptr noundef nonnull align 8 dereferenceable(8) %24, i64 noundef %27)
  call void @llvm.lifetime.start.p0(i64 8, ptr %5) #17
  %31 = getelementptr inbounds nuw %"class.duckdb_snappy::SnappyDecompressor", ptr %15, i32 0, i32 0
  %32 = load ptr, ptr %31, align 8, !tbaa !65
  %33 = load ptr, ptr %32, align 8, !tbaa !67
  %34 = getelementptr inbounds ptr, ptr %33, i64 3
  %35 = load ptr, ptr %34, align 8
  %36 = call noundef ptr %35(ptr noundef nonnull align 8 dereferenceable(8) %32, ptr noundef %5)
  store ptr %36, ptr %4, align 8, !tbaa !7
  %37 = load i64, ptr %5, align 8, !tbaa !3
  %38 = trunc i64 %37 to i32
  %39 = getelementptr inbounds nuw %"class.duckdb_snappy::SnappyDecompressor", ptr %15, i32 0, i32 4
  store i32 %38, ptr %39, align 8, !tbaa !66
  %40 = load i64, ptr %5, align 8, !tbaa !3
  %41 = icmp eq i64 %40, 0
  %42 = getelementptr inbounds nuw %"class.duckdb_snappy::SnappyDecompressor", ptr %15, i32 0, i32 5
  %43 = zext i1 %41 to i8
  store i8 %43, ptr %42, align 4, !tbaa !69
  %44 = getelementptr inbounds nuw %"class.duckdb_snappy::SnappyDecompressor", ptr %15, i32 0, i32 5
  %45 = load i8, ptr %44, align 4, !tbaa !69, !range !42, !noundef !43
  %46 = trunc i8 %45 to i1
  br i1 %46, label %47, label %48

47:                                               ; preds = %22
  store i1 false, ptr %2, align 1
  store i32 1, ptr %6, align 4
  br label %53

48:                                               ; preds = %22
  %49 = load ptr, ptr %4, align 8, !tbaa !7
  %50 = load i64, ptr %5, align 8, !tbaa !3
  %51 = getelementptr inbounds nuw i8, ptr %49, i64 %50
  %52 = getelementptr inbounds nuw %"class.duckdb_snappy::SnappyDecompressor", ptr %15, i32 0, i32 2
  store ptr %51, ptr %52, align 8, !tbaa !64
  store i32 0, ptr %6, align 4
  br label %53

53:                                               ; preds = %48, %47
  call void @llvm.lifetime.end.p0(i64 8, ptr %5) #17
  %54 = load i32, ptr %6, align 4
  switch i32 %54, label %172 [
    i32 0, label %55
  ]

55:                                               ; preds = %53
  br label %56

56:                                               ; preds = %55, %1
  call void @llvm.lifetime.start.p0(i64 1, ptr %7) #17
  %57 = load ptr, ptr %4, align 8, !tbaa !7
  %58 = load i8, ptr %57, align 1, !tbaa !16
  store i8 %58, ptr %7, align 1, !tbaa !16
  call void @llvm.lifetime.start.p0(i64 4, ptr %8) #17
  %59 = load i8, ptr %7, align 1, !tbaa !16
  %60 = call noundef i32 @_ZN13duckdb_snappy15CalculateNeededEh(i8 noundef zeroext %59)
  store i32 %60, ptr %8, align 4, !tbaa !12
  call void @llvm.lifetime.start.p0(i64 4, ptr %9) #17
  %61 = getelementptr inbounds nuw %"class.duckdb_snappy::SnappyDecompressor", ptr %15, i32 0, i32 2
  %62 = load ptr, ptr %61, align 8, !tbaa !64
  %63 = load ptr, ptr %4, align 8, !tbaa !7
  %64 = ptrtoint ptr %62 to i64
  %65 = ptrtoint ptr %63 to i64
  %66 = sub i64 %64, %65
  %67 = trunc i64 %66 to i32
  store i32 %67, ptr %9, align 4, !tbaa !12
  %68 = load i32, ptr %9, align 4, !tbaa !12
  %69 = load i32, ptr %8, align 4, !tbaa !12
  %70 = icmp ult i32 %68, %69
  br i1 %70, label %71, label %139

71:                                               ; preds = %56
  %72 = getelementptr inbounds nuw %"class.duckdb_snappy::SnappyDecompressor", ptr %15, i32 0, i32 6
  %73 = getelementptr inbounds [5 x i8], ptr %72, i64 0, i64 0
  %74 = load ptr, ptr %4, align 8, !tbaa !7
  %75 = load i32, ptr %9, align 4, !tbaa !12
  %76 = zext i32 %75 to i64
  call void @llvm.memmove.p0.p0.i64(ptr align 1 %73, ptr align 1 %74, i64 %76, i1 false)
  %77 = getelementptr inbounds nuw %"class.duckdb_snappy::SnappyDecompressor", ptr %15, i32 0, i32 0
  %78 = load ptr, ptr %77, align 8, !tbaa !65
  %79 = getelementptr inbounds nuw %"class.duckdb_snappy::SnappyDecompressor", ptr %15, i32 0, i32 4
  %80 = load i32, ptr %79, align 8, !tbaa !66
  %81 = zext i32 %80 to i64
  %82 = load ptr, ptr %78, align 8, !tbaa !67
  %83 = getelementptr inbounds ptr, ptr %82, i64 4
  %84 = load ptr, ptr %83, align 8
  call void %84(ptr noundef nonnull align 8 dereferenceable(8) %78, i64 noundef %81)
  %85 = getelementptr inbounds nuw %"class.duckdb_snappy::SnappyDecompressor", ptr %15, i32 0, i32 4
  store i32 0, ptr %85, align 8, !tbaa !66
  br label %86

86:                                               ; preds = %128, %71
  %87 = load i32, ptr %9, align 4, !tbaa !12
  %88 = load i32, ptr %8, align 4, !tbaa !12
  %89 = icmp ult i32 %87, %88
  br i1 %89, label %90, label %129

90:                                               ; preds = %86
  call void @llvm.lifetime.start.p0(i64 8, ptr %10) #17
  call void @llvm.lifetime.start.p0(i64 8, ptr %11) #17
  %91 = getelementptr inbounds nuw %"class.duckdb_snappy::SnappyDecompressor", ptr %15, i32 0, i32 0
  %92 = load ptr, ptr %91, align 8, !tbaa !65
  %93 = load ptr, ptr %92, align 8, !tbaa !67
  %94 = getelementptr inbounds ptr, ptr %93, i64 3
  %95 = load ptr, ptr %94, align 8
  %96 = call noundef ptr %95(ptr noundef nonnull align 8 dereferenceable(8) %92, ptr noundef %10)
  store ptr %96, ptr %11, align 8, !tbaa !7
  %97 = load i64, ptr %10, align 8, !tbaa !3
  %98 = icmp eq i64 %97, 0
  br i1 %98, label %99, label %100

99:                                               ; preds = %90
  store i1 false, ptr %2, align 1
  store i32 1, ptr %6, align 4
  br label %126

100:                                              ; preds = %90
  call void @llvm.lifetime.start.p0(i64 4, ptr %12) #17
  call void @llvm.lifetime.start.p0(i64 4, ptr %13) #17
  %101 = load i32, ptr %8, align 4, !tbaa !12
  %102 = load i32, ptr %9, align 4, !tbaa !12
  %103 = sub i32 %101, %102
  store i32 %103, ptr %13, align 4, !tbaa !12
  call void @llvm.lifetime.start.p0(i64 4, ptr %14) #17
  %104 = load i64, ptr %10, align 8, !tbaa !3
  %105 = trunc i64 %104 to i32
  store i32 %105, ptr %14, align 4, !tbaa !12
  %106 = call noundef nonnull align 4 dereferenceable(4) ptr @_ZSt3minIjERKT_S2_S2_(ptr noundef nonnull align 4 dereferenceable(4) %13, ptr noundef nonnull align 4 dereferenceable(4) %14)
  %107 = load i32, ptr %106, align 4, !tbaa !12
  call void @llvm.lifetime.end.p0(i64 4, ptr %14) #17
  call void @llvm.lifetime.end.p0(i64 4, ptr %13) #17
  store i32 %107, ptr %12, align 4, !tbaa !12
  %108 = getelementptr inbounds nuw %"class.duckdb_snappy::SnappyDecompressor", ptr %15, i32 0, i32 6
  %109 = getelementptr inbounds [5 x i8], ptr %108, i64 0, i64 0
  %110 = load i32, ptr %9, align 4, !tbaa !12
  %111 = zext i32 %110 to i64
  %112 = getelementptr inbounds nuw i8, ptr %109, i64 %111
  %113 = load ptr, ptr %11, align 8, !tbaa !7
  %114 = load i32, ptr %12, align 4, !tbaa !12
  %115 = zext i32 %114 to i64
  call void @llvm.memcpy.p0.p0.i64(ptr align 1 %112, ptr align 1 %113, i64 %115, i1 false)
  %116 = load i32, ptr %12, align 4, !tbaa !12
  %117 = load i32, ptr %9, align 4, !tbaa !12
  %118 = add i32 %117, %116
  store i32 %118, ptr %9, align 4, !tbaa !12
  %119 = getelementptr inbounds nuw %"class.duckdb_snappy::SnappyDecompressor", ptr %15, i32 0, i32 0
  %120 = load ptr, ptr %119, align 8, !tbaa !65
  %121 = load i32, ptr %12, align 4, !tbaa !12
  %122 = zext i32 %121 to i64
  %123 = load ptr, ptr %120, align 8, !tbaa !67
  %124 = getelementptr inbounds ptr, ptr %123, i64 4
  %125 = load ptr, ptr %124, align 8
  call void %125(ptr noundef nonnull align 8 dereferenceable(8) %120, i64 noundef %122)
  call void @llvm.lifetime.end.p0(i64 4, ptr %12) #17
  store i32 0, ptr %6, align 4
  br label %126

126:                                              ; preds = %100, %99
  call void @llvm.lifetime.end.p0(i64 8, ptr %11) #17
  call void @llvm.lifetime.end.p0(i64 8, ptr %10) #17
  %127 = load i32, ptr %6, align 4
  switch i32 %127, label %171 [
    i32 0, label %128
  ]

128:                                              ; preds = %126
  br label %86, !llvm.loop !70

129:                                              ; preds = %86
  %130 = getelementptr inbounds nuw %"class.duckdb_snappy::SnappyDecompressor", ptr %15, i32 0, i32 6
  %131 = getelementptr inbounds [5 x i8], ptr %130, i64 0, i64 0
  %132 = getelementptr inbounds nuw %"class.duckdb_snappy::SnappyDecompressor", ptr %15, i32 0, i32 1
  store ptr %131, ptr %132, align 8, !tbaa !61
  %133 = getelementptr inbounds nuw %"class.duckdb_snappy::SnappyDecompressor", ptr %15, i32 0, i32 6
  %134 = getelementptr inbounds [5 x i8], ptr %133, i64 0, i64 0
  %135 = load i32, ptr %8, align 4, !tbaa !12
  %136 = zext i32 %135 to i64
  %137 = getelementptr inbounds nuw i8, ptr %134, i64 %136
  %138 = getelementptr inbounds nuw %"class.duckdb_snappy::SnappyDecompressor", ptr %15, i32 0, i32 2
  store ptr %137, ptr %138, align 8, !tbaa !64
  br label %170

139:                                              ; preds = %56
  %140 = load i32, ptr %9, align 4, !tbaa !12
  %141 = icmp ult i32 %140, 5
  br i1 %141, label %142, label %166

142:                                              ; preds = %139
  %143 = getelementptr inbounds nuw %"class.duckdb_snappy::SnappyDecompressor", ptr %15, i32 0, i32 6
  %144 = getelementptr inbounds [5 x i8], ptr %143, i64 0, i64 0
  %145 = load ptr, ptr %4, align 8, !tbaa !7
  %146 = load i32, ptr %9, align 4, !tbaa !12
  %147 = zext i32 %146 to i64
  call void @llvm.memmove.p0.p0.i64(ptr align 1 %144, ptr align 1 %145, i64 %147, i1 false)
  %148 = getelementptr inbounds nuw %"class.duckdb_snappy::SnappyDecompressor", ptr %15, i32 0, i32 0
  %149 = load ptr, ptr %148, align 8, !tbaa !65
  %150 = getelementptr inbounds nuw %"class.duckdb_snappy::SnappyDecompressor", ptr %15, i32 0, i32 4
  %151 = load i32, ptr %150, align 8, !tbaa !66
  %152 = zext i32 %151 to i64
  %153 = load ptr, ptr %149, align 8, !tbaa !67
  %154 = getelementptr inbounds ptr, ptr %153, i64 4
  %155 = load ptr, ptr %154, align 8
  call void %155(ptr noundef nonnull align 8 dereferenceable(8) %149, i64 noundef %152)
  %156 = getelementptr inbounds nuw %"class.duckdb_snappy::SnappyDecompressor", ptr %15, i32 0, i32 4
  store i32 0, ptr %156, align 8, !tbaa !66
  %157 = getelementptr inbounds nuw %"class.duckdb_snappy::SnappyDecompressor", ptr %15, i32 0, i32 6
  %158 = getelementptr inbounds [5 x i8], ptr %157, i64 0, i64 0
  %159 = getelementptr inbounds nuw %"class.duckdb_snappy::SnappyDecompressor", ptr %15, i32 0, i32 1
  store ptr %158, ptr %159, align 8, !tbaa !61
  %160 = getelementptr inbounds nuw %"class.duckdb_snappy::SnappyDecompressor", ptr %15, i32 0, i32 6
  %161 = getelementptr inbounds [5 x i8], ptr %160, i64 0, i64 0
  %162 = load i32, ptr %9, align 4, !tbaa !12
  %163 = zext i32 %162 to i64
  %164 = getelementptr inbounds nuw i8, ptr %161, i64 %163
  %165 = getelementptr inbounds nuw %"class.duckdb_snappy::SnappyDecompressor", ptr %15, i32 0, i32 2
  store ptr %164, ptr %165, align 8, !tbaa !64
  br label %169

166:                                              ; preds = %139
  %167 = load ptr, ptr %4, align 8, !tbaa !7
  %168 = getelementptr inbounds nuw %"class.duckdb_snappy::SnappyDecompressor", ptr %15, i32 0, i32 1
  store ptr %167, ptr %168, align 8, !tbaa !61
  br label %169

169:                                              ; preds = %166, %142
  br label %170

170:                                              ; preds = %169, %129
  store i1 true, ptr %2, align 1
  store i32 1, ptr %6, align 4
  br label %171

171:                                              ; preds = %170, %126
  call void @llvm.lifetime.end.p0(i64 4, ptr %9) #17
  call void @llvm.lifetime.end.p0(i64 4, ptr %8) #17
  call void @llvm.lifetime.end.p0(i64 1, ptr %7) #17
  br label %172

172:                                              ; preds = %171, %53
  call void @llvm.lifetime.end.p0(i64 8, ptr %4) #17
  %173 = load i1, ptr %2, align 1
  ret i1 %173
}