; Function Attrs: mustprogress uwtable
define noundef zeroext i1 @_ZN13duckdb_snappy18SnappyDecompressor9RefillTagEv(ptr noundef nonnull align 8 dereferenceable(42) %0) local_unnamed_addr #3 align 2 {
  %2 = alloca i64, align 8
  %3 = alloca i64, align 8
  %4 = getelementptr inbounds nuw i8, ptr %0, i64 8
  %5 = load ptr, ptr %4, align 8, !tbaa !42
  %6 = getelementptr inbounds nuw i8, ptr %0, i64 16
  %7 = load ptr, ptr %6, align 8, !tbaa !46
  %8 = icmp eq ptr %5, %7
  br i1 %8, label %9, label %29

9:                                                ; preds = %1
  %10 = load ptr, ptr %0, align 8, !tbaa !47
  %11 = getelementptr inbounds nuw i8, ptr %0, i64 32
  %12 = load i32, ptr %11, align 8, !tbaa !48
  %13 = zext i32 %12 to i64
  %14 = load ptr, ptr %10, align 8, !tbaa !49
  %15 = getelementptr inbounds nuw i8, ptr %14, i64 32
  %16 = load ptr, ptr %15, align 8
  tail call void %16(ptr noundef nonnull align 8 dereferenceable(8) %10, i64 noundef %13)
  call void @llvm.lifetime.start.p0(i64 8, ptr nonnull %2) #27
  %17 = load ptr, ptr %0, align 8, !tbaa !47
  %18 = load ptr, ptr %17, align 8, !tbaa !49
  %19 = getelementptr inbounds nuw i8, ptr %18, i64 24
  %20 = load ptr, ptr %19, align 8
  %21 = call noundef ptr %20(ptr noundef nonnull align 8 dereferenceable(8) %17, ptr noundef nonnull %2)
  %22 = load i64, ptr %2, align 8, !tbaa !6
  %23 = trunc i64 %22 to i32
  store i32 %23, ptr %11, align 8, !tbaa !48
  %24 = icmp eq i64 %22, 0
  %25 = getelementptr inbounds nuw i8, ptr %0, i64 36
  %26 = zext i1 %24 to i8
  store i8 %26, ptr %25, align 4, !tbaa !51
  br i1 %24, label %.critedge, label %27

27:                                               ; preds = %9
  %28 = getelementptr inbounds nuw i8, ptr %21, i64 %22
  store ptr %28, ptr %6, align 8, !tbaa !46
  call void @llvm.lifetime.end.p0(i64 8, ptr nonnull %2) #27
  br label %29

29:                                               ; preds = %27, %1
  %30 = phi ptr [ %28, %27 ], [ %7, %1 ]
  %.029 = phi ptr [ %21, %27 ], [ %5, %1 ]
  %31 = load i8, ptr %.029, align 1, !tbaa !3
  %32 = zext i8 %31 to i32
  %33 = and i32 %32, 3
  %34 = icmp eq i32 %33, 0
  %35 = icmp ugt i8 %31, -17
  %or.cond.i = and i1 %35, %34
  br i1 %or.cond.i, label %36, label %39

36:                                               ; preds = %29
  %37 = lshr exact i32 %32, 2
  %38 = add nsw i32 %37, -58
  br label %_ZN13duckdb_snappy15CalculateNeededEh.exit

39:                                               ; preds = %29
  %40 = shl nuw nsw i32 %32, 3
  %41 = and i32 %40, 24
  %42 = lshr i32 84083201, %41
  %43 = and i32 %42, 7
  br label %_ZN13duckdb_snappy15CalculateNeededEh.exit

_ZN13duckdb_snappy15CalculateNeededEh.exit:       ; preds = %36, %39
  %44 = phi i32 [ %38, %36 ], [ %43, %39 ]
  %45 = ptrtoint ptr %30 to i64
  %46 = ptrtoint ptr %.029 to i64
  %47 = sub i64 %45, %46
  %48 = trunc i64 %47 to i32
  %49 = icmp ugt i32 %44, %48
  br i1 %49, label %50, label %82

50:                                               ; preds = %_ZN13duckdb_snappy15CalculateNeededEh.exit
  %51 = getelementptr inbounds nuw i8, ptr %0, i64 37
  %52 = and i64 %47, 4294967295
  call void @llvm.memmove.p0.p0.i64(ptr nonnull align 1 %51, ptr nonnull align 1 %.029, i64 %52, i1 false)
  %53 = load ptr, ptr %0, align 8, !tbaa !47
  %54 = getelementptr inbounds nuw i8, ptr %0, i64 32
  %55 = load i32, ptr %54, align 8, !tbaa !48
  %56 = zext i32 %55 to i64
  %57 = load ptr, ptr %53, align 8, !tbaa !49
  %58 = getelementptr inbounds nuw i8, ptr %57, i64 32
  %59 = load ptr, ptr %58, align 8
  call void %59(ptr noundef nonnull align 8 dereferenceable(8) %53, i64 noundef %56)
  store i32 0, ptr %54, align 8, !tbaa !48
  br label %60

60:                                               ; preds = %50, %67
  %.03040 = phi i32 [ %48, %50 ], [ %73, %67 ]
  call void @llvm.lifetime.start.p0(i64 8, ptr nonnull %3) #27
  %61 = load ptr, ptr %0, align 8, !tbaa !47
  %62 = load ptr, ptr %61, align 8, !tbaa !49
  %63 = getelementptr inbounds nuw i8, ptr %62, i64 24
  %64 = load ptr, ptr %63, align 8
  %65 = call noundef ptr %64(ptr noundef nonnull align 8 dereferenceable(8) %61, ptr noundef nonnull %3)
  %66 = load i64, ptr %3, align 8, !tbaa !6
  %.not = icmp eq i64 %66, 0
  br i1 %.not, label %.thread, label %67

.thread:                                          ; preds = %60
  call void @llvm.lifetime.end.p0(i64 8, ptr nonnull %3) #27
  br label %96

67:                                               ; preds = %60
  %68 = sub i32 %44, %.03040
  %69 = trunc i64 %66 to i32
  %.sroa.speculated = call i32 @llvm.umin.i32(i32 %68, i32 %69)
  %70 = zext i32 %.03040 to i64
  %71 = getelementptr inbounds nuw i8, ptr %51, i64 %70
  %72 = zext i32 %.sroa.speculated to i64
  call void @llvm.memcpy.p0.p0.i64(ptr nonnull align 1 %71, ptr align 1 %65, i64 %72, i1 false)
  %73 = add i32 %.sroa.speculated, %.03040
  %74 = load ptr, ptr %0, align 8, !tbaa !47
  %75 = load ptr, ptr %74, align 8, !tbaa !49
  %76 = getelementptr inbounds nuw i8, ptr %75, i64 32
  %77 = load ptr, ptr %76, align 8
  call void %77(ptr noundef nonnull align 8 dereferenceable(8) %74, i64 noundef %72)
  call void @llvm.lifetime.end.p0(i64 8, ptr nonnull %3) #27
  %78 = icmp ult i32 %73, %44
  br i1 %78, label %60, label %79, !llvm.loop !52

79:                                               ; preds = %67
  store ptr %51, ptr %4, align 8, !tbaa !42
  %80 = zext i32 %44 to i64
  %81 = getelementptr inbounds nuw i8, ptr %51, i64 %80
  store ptr %81, ptr %6, align 8, !tbaa !46
  br label %96

82:                                               ; preds = %_ZN13duckdb_snappy15CalculateNeededEh.exit
  %83 = icmp ult i32 %48, 5
  br i1 %83, label %84, label %95

84:                                               ; preds = %82
  %85 = getelementptr inbounds nuw i8, ptr %0, i64 37
  %86 = and i64 %47, 7
  call void @llvm.memmove.p0.p0.i64(ptr nonnull align 1 %85, ptr nonnull align 1 %.029, i64 %86, i1 false)
  %87 = load ptr, ptr %0, align 8, !tbaa !47
  %88 = getelementptr inbounds nuw i8, ptr %0, i64 32
  %89 = load i32, ptr %88, align 8, !tbaa !48
  %90 = zext i32 %89 to i64
  %91 = load ptr, ptr %87, align 8, !tbaa !49
  %92 = getelementptr inbounds nuw i8, ptr %91, i64 32
  %93 = load ptr, ptr %92, align 8
  call void %93(ptr noundef nonnull align 8 dereferenceable(8) %87, i64 noundef %90)
  store i32 0, ptr %88, align 8, !tbaa !48
  store ptr %85, ptr %4, align 8, !tbaa !42
  %94 = getelementptr inbounds nuw i8, ptr %85, i64 %86
  store ptr %94, ptr %6, align 8, !tbaa !46
  br label %96

95:                                               ; preds = %82
  store ptr %.029, ptr %4, align 8, !tbaa !42
  br label %96

.critedge:                                        ; preds = %9
  call void @llvm.lifetime.end.p0(i64 8, ptr nonnull %2) #27
  br label %96

96:                                               ; preds = %.thread, %84, %95, %79, %.critedge
  %.2 = phi i1 [ false, %.critedge ], [ true, %84 ], [ true, %95 ], [ true, %79 ], [ false, %.thread ]
  ret i1 %.2
}